target datalayout = "e-m:e-p270:32:32-p271:32:32-p272:64:64-i64:64-i128:128-f80:128-n8:16:32:64-S128"
target triple = "x86_64-pc-linux-gnu"

%"struct.std::_Rb_tree_const_iterator" = type { ptr }
%"class.std::set" = type { %"class.std::_Rb_tree" }
%"class.std::_Rb_tree" = type { %"struct.std::_Rb_tree<pxrInternal_v0_24__pxrReserved__::SdfPath, pxrInternal_v0_24__pxrReserved__::SdfPath, std::_Identity<pxrInternal_v0_24__pxrReserved__::SdfPath>, std::less<pxrInternal_v0_24__pxrReserved__::SdfPath>>::_Rb_tree_impl" }
%"struct.std::_Rb_tree<pxrInternal_v0_24__pxrReserved__::SdfPath, pxrInternal_v0_24__pxrReserved__::SdfPath, std::_Identity<pxrInternal_v0_24__pxrReserved__::SdfPath>, std::less<pxrInternal_v0_24__pxrReserved__::SdfPath>>::_Rb_tree_impl" = type { [8 x i8], %"struct.std::_Rb_tree_header" }
%"struct.std::_Rb_tree_header" = type { %"struct.std::_Rb_tree_node_base", i64 }
%"struct.std::_Rb_tree_node_base" = type { i32, ptr, ptr, ptr }
%"struct.std::_Rb_tree_node" = type { %"struct.std::_Rb_tree_node_base", %"struct.__gnu_cxx::__aligned_membuf" }
%"struct.__gnu_cxx::__aligned_membuf" = type { [8 x i8] }

; Function Attrs: mustprogress nounwind uwtable
define linkonce_odr noundef ptr @_ZNK9__gnu_cxx16__aligned_membufIN32pxrInternal_v0_24__pxrReserved__7SdfPathEE7_M_addrEv(ptr noundef nonnull align 4 dereferenceable(8) %0) #2 comdat align 2 {
  %2 = alloca ptr, align 8
  store ptr %0, ptr %2, align 8
  %3 = load ptr, ptr %2, align 8
  %4 = getelementptr inbounds nuw %"struct.__gnu_cxx::__aligned_membuf", ptr %3, i32 0, i32 0
  ret ptr %4
}

; Function Attrs: mustprogress nounwind uwtable
define linkonce_odr noundef ptr @_ZNK9__gnu_cxx16__aligned_membufIN32pxrInternal_v0_24__pxrReserved__7SdfPathEE6_M_ptrEv(ptr noundef nonnull align 4 dereferenceable(8) %0) #2 comdat align 2 {
  %2 = alloca ptr, align 8
  store ptr %0, ptr %2, align 8
  %3 = load ptr, ptr %2, align 8
  %4 = call noundef ptr @_ZNK9__gnu_cxx16__aligned_membufIN32pxrInternal_v0_24__pxrReserved__7SdfPathEE7_M_addrEv(ptr noundef nonnull align 4 dereferenceable(8) %3) #5
  ret ptr %4
}

; Function Attrs: mustprogress nounwind uwtable
define linkonce_odr void @_ZNSt23_Rb_tree_const_iteratorIN32pxrInternal_v0_24__pxrReserved__7SdfPathEEC2EPKSt18_Rb_tree_node_base(ptr noundef nonnull align 8 dereferenceable(8) %0, ptr noundef %1) unnamed_addr #2 comdat align 2 {
  %3 = alloca ptr, align 8
  %4 = alloca ptr, align 8
  store ptr %0, ptr %3, align 8
  store ptr %1, ptr %4, align 8
  %5 = load ptr, ptr %3, align 8
  %6 = getelementptr inbounds nuw %"struct.std::_Rb_tree_const_iterator", ptr %5, i32 0, i32 0
  %7 = load ptr, ptr %4, align 8
  store ptr %7, ptr %6, align 8
  ret void
}

; Function Attrs: noreturn nounwind uwtable
define linkonce_odr hidden void @__clang_call_terminate(ptr noundef %0) #6 comdat {
  %2 = call ptr @__cxa_begin_catch(ptr %0) #5
  call void @_ZSt9terminatev() #15
  unreachable
}

; Function Attrs: mustprogress nounwind uwtable
define linkonce_odr noundef ptr @_ZNKSt13_Rb_tree_nodeIN32pxrInternal_v0_24__pxrReserved__7SdfPathEE9_M_valptrEv(ptr noundef nonnull align 8 dereferenceable(40) %0) #2 comdat align 2 {
  %2 = alloca ptr, align 8
  store ptr %0, ptr %2, align 8
  %3 = load ptr, ptr %2, align 8
  %4 = getelementptr inbounds nuw %"struct.std::_Rb_tree_node", ptr %3, i32 0, i32 1
  %5 = call noundef ptr @_ZNK9__gnu_cxx16__aligned_membufIN32pxrInternal_v0_24__pxrReserved__7SdfPathEE6_M_ptrEv(ptr noundef nonnull align 4 dereferenceable(8) %4) #5
  ret ptr %5
}

; Function Attrs: mustprogress nounwind uwtable
define linkonce_odr ptr @_ZNKSt8_Rb_treeIN32pxrInternal_v0_24__pxrReserved__7SdfPathES1_St9_IdentityIS1_ESt4lessIS1_ESaIS1_EE3endEv(ptr noundef nonnull align 8 dereferenceable(48) %0) #2 comdat align 2 {
  %2 = alloca %"struct.std::_Rb_tree_const_iterator", align 8
  %3 = alloca ptr, align 8
  store ptr %0, ptr %3, align 8
  %4 = load ptr, ptr %3, align 8
  %5 = getelementptr inbounds nuw %"class.std::_Rb_tree", ptr %4, i32 0, i32 0
  %6 = getelementptr inbounds i8, ptr %5, i64 8
  %7 = getelementptr inbounds nuw %"struct.std::_Rb_tree_header", ptr %6, i32 0, i32 0
  call void @_ZNSt23_Rb_tree_const_iteratorIN32pxrInternal_v0_24__pxrReserved__7SdfPathEEC2EPKSt18_Rb_tree_node_base(ptr noundef nonnull align 8 dereferenceable(8) %2, ptr noundef %7) #5
  %8 = getelementptr inbounds nuw %"struct.std::_Rb_tree_const_iterator", ptr %2, i32 0, i32 0
  %9 = load ptr, ptr %8, align 8
  ret ptr %9
}

; Function Attrs: mustprogress nounwind uwtable
define linkonce_odr ptr @_ZNKSt8_Rb_treeIN32pxrInternal_v0_24__pxrReserved__7SdfPathES1_St9_IdentityIS1_ESt4lessIS1_ESaIS1_EE5beginEv(ptr noundef nonnull align 8 dereferenceable(48) %0) #2 comdat align 2 {
  %2 = alloca %"struct.std::_Rb_tree_const_iterator", align 8
  %3 = alloca ptr, align 8
  store ptr %0, ptr %3, align 8
  %4 = load ptr, ptr %3, align 8
  %5 = getelementptr inbounds nuw %"class.std::_Rb_tree", ptr %4, i32 0, i32 0
  %6 = getelementptr inbounds i8, ptr %5, i64 8
  %7 = getelementptr inbounds nuw %"struct.std::_Rb_tree_header", ptr %6, i32 0, i32 0
  %8 = getelementptr inbounds nuw %"struct.std::_Rb_tree_node_base", ptr %7, i32 0, i32 2
  %9 = load ptr, ptr %8, align 8
  call void @_ZNSt23_Rb_tree_const_iteratorIN32pxrInternal_v0_24__pxrReserved__7SdfPathEEC2EPKSt18_Rb_tree_node_base(ptr noundef nonnull align 8 dereferenceable(8) %2, ptr noundef %9) #5
  %10 = getelementptr inbounds nuw %"struct.std::_Rb_tree_const_iterator", ptr %2, i32 0, i32 0
  %11 = load ptr, ptr %10, align 8
  ret ptr %11
}

; Function Attrs: mustprogress nounwind uwtable
define linkonce_odr noundef nonnull align 8 dereferenceable(8) ptr @_ZNSt23_Rb_tree_const_iteratorIN32pxrInternal_v0_24__pxrReserved__7SdfPathEEppEv(ptr noundef nonnull align 8 dereferenceable(8) %0) #2 comdat align 2 {
  %2 = alloca ptr, align 8
  store ptr %0, ptr %2, align 8
  %3 = load ptr, ptr %2, align 8
  %4 = getelementptr inbounds nuw %"struct.std::_Rb_tree_const_iterator", ptr %3, i32 0, i32 0
  %5 = load ptr, ptr %4, align 8
  %6 = call noundef ptr @_ZSt18_Rb_tree_incrementPKSt18_Rb_tree_node_base(ptr noundef %5) #16
  %7 = getelementptr inbounds nuw %"struct.std::_Rb_tree_const_iterator", ptr %3, i32 0, i32 0
  store ptr %6, ptr %7, align 8
  ret ptr %3
}

; Function Attrs: mustprogress nounwind uwtable
define linkonce_odr noundef nonnull align 4 dereferenceable(8) ptr @_ZNKSt23_Rb_tree_const_iteratorIN32pxrInternal_v0_24__pxrReserved__7SdfPathEEdeEv(ptr noundef nonnull align 8 dereferenceable(8) %0) #2 comdat align 2 personality ptr @__gxx_personality_v0 {
  %2 = alloca ptr, align 8
  store ptr %0, ptr %2, align 8
  %3 = load ptr, ptr %2, align 8
  %4 = getelementptr inbounds nuw %"struct.std::_Rb_tree_const_iterator", ptr %3, i32 0, i32 0
  %5 = load ptr, ptr %4, align 8
  %6 = invoke noundef ptr @_ZNKSt13_Rb_tree_nodeIN32pxrInternal_v0_24__pxrReserved__7SdfPathEE9_M_valptrEv(ptr noundef nonnull align 8 dereferenceable(40) %5)
          to label %7 unwind label %8

7:                                                ; preds = %1
  ret ptr %6

8:                                                ; preds = %1
  %9 = landingpad { ptr, i32 }
          catch ptr null
  %10 = extractvalue { ptr, i32 } %9, 0
  call void @__clang_call_terminate(ptr %10) #15
  unreachable
}

; Function Attrs: mustprogress nounwind uwtable
define linkonce_odr noundef zeroext i1 @_ZStneRKSt23_Rb_tree_const_iteratorIN32pxrInternal_v0_24__pxrReserved__7SdfPathEES4_(ptr noundef nonnull align 8 dereferenceable(8) %0, ptr noundef nonnull align 8 dereferenceable(8) %1) #2 comdat {
  %3 = alloca ptr, align 8
  %4 = alloca ptr, align 8
  store ptr %0, ptr %3, align 8
  store ptr %1, ptr %4, align 8
  %5 = load ptr, ptr %3, align 8
  %6 = getelementptr inbounds nuw %"struct.std::_Rb_tree_const_iterator", ptr %5, i32 0, i32 0
  %7 = load ptr, ptr %6, align 8
  %8 = load ptr, ptr %4, align 8
  %9 = getelementptr inbounds nuw %"struct.std::_Rb_tree_const_iterator", ptr %8, i32 0, i32 0
  %10 = load ptr, ptr %9, align 8
  %11 = icmp ne ptr %7, %10
  ret i1 %11
}

; Function Attrs: mustprogress nounwind uwtable
define linkonce_odr ptr @_ZNKSt3setIN32pxrInternal_v0_24__pxrReserved__7SdfPathESt4lessIS1_ESaIS1_EE3endEv(ptr noundef nonnull align 8 dereferenceable(48) %0) #2 comdat align 2 {
  %2 = alloca %"struct.std::_Rb_tree_const_iterator", align 8
  %3 = alloca ptr, align 8
  store ptr %0, ptr %3, align 8
  %4 = load ptr, ptr %3, align 8
  %5 = getelementptr inbounds nuw %"class.std::set", ptr %4, i32 0, i32 0
  %6 = call ptr @_ZNKSt8_Rb_treeIN32pxrInternal_v0_24__pxrReserved__7SdfPathES1_St9_IdentityIS1_ESt4lessIS1_ESaIS1_EE3endEv(ptr noundef nonnull align 8 dereferenceable(48) %5) #5
  %7 = getelementptr inbounds nuw %"struct.std::_Rb_tree_const_iterator", ptr %2, i32 0, i32 0
  store ptr %6, ptr %7, align 8
  %8 = getelementptr inbounds nuw %"struct.std::_Rb_tree_const_iterator", ptr %2, i32 0, i32 0
  %9 = load ptr, ptr %8, align 8
  ret ptr %9
}

; Function Attrs: mustprogress nounwind uwtable
define linkonce_odr ptr @_ZNKSt3setIN32pxrInternal_v0_24__pxrReserved__7SdfPathESt4lessIS1_ESaIS1_EE5beginEv(ptr noundef nonnull align 8 dereferenceable(48) %0) #2 comdat align 2 {
  %2 = alloca %"struct.std::_Rb_tree_const_iterator", align 8
  %3 = alloca ptr, align 8
  store ptr %0, ptr %3, align 8
  %4 = load ptr, ptr %3, align 8
  %5 = getelementptr inbounds nuw %"class.std::set", ptr %4, i32 0, i32 0
  %6 = call ptr @_ZNKSt8_Rb_treeIN32pxrInternal_v0_24__pxrReserved__7SdfPathES1_St9_IdentityIS1_ESt4lessIS1_ESaIS1_EE5beginEv(ptr noundef nonnull align 8 dereferenceable(48) %5) #5
  %7 = getelementptr inbounds nuw %"struct.std::_Rb_tree_const_iterator", ptr %2, i32 0, i32 0
  store ptr %6, ptr %7, align 8
  %8 = getelementptr inbounds nuw %"struct.std::_Rb_tree_const_iterator", ptr %2, i32 0, i32 0
  %9 = load ptr, ptr %8, align 8
  ret ptr %9
}

; Function Attrs: mustprogress uwtable
define void @_ZN32pxrInternal_v0_24__pxrReserved__17UsdStageLoadRules13LoadAndUnloadERKSt3setINS_7SdfPathESt4lessIS2_ESaIS2_EES8_NS_13UsdLoadPolicyE(ptr noundef nonnull align 8 dereferenceable(24) %0, ptr noundef nonnull align 8 dereferenceable(48) %1, ptr noundef nonnull align 8 dereferenceable(48) %2, i32 noundef %3) #0 align 2 {
  %5 = alloca ptr, align 8
  %6 = alloca ptr, align 8
  %7 = alloca ptr, align 8
  %8 = alloca i32, align 4
  %9 = alloca ptr, align 8
  %10 = alloca %"struct.std::_Rb_tree_const_iterator", align 8
  %11 = alloca %"struct.std::_Rb_tree_const_iterator", align 8
  %12 = alloca ptr, align 8
  %13 = alloca ptr, align 8
  %14 = alloca %"struct.std::_Rb_tree_const_iterator", align 8
  %15 = alloca %"struct.std::_Rb_tree_const_iterator", align 8
  %16 = alloca ptr, align 8
  store ptr %0, ptr %5, align 8
  store ptr %1, ptr %6, align 8
  store ptr %2, ptr %7, align 8
  store i32 %3, ptr %8, align 4
  %17 = load ptr, ptr %5, align 8
  %18 = load ptr, ptr %7, align 8
  store ptr %18, ptr %9, align 8
  %19 = load ptr, ptr %9, align 8
  %20 = call ptr @_ZNKSt3setIN32pxrInternal_v0_24__pxrReserved__7SdfPathESt4lessIS1_ESaIS1_EE5beginEv(ptr noundef nonnull align 8 dereferenceable(48) %19) #5
  %21 = getelementptr inbounds nuw %"struct.std::_Rb_tree_const_iterator", ptr %10, i32 0, i32 0
  store ptr %20, ptr %21, align 8
  %22 = load ptr, ptr %9, align 8
  %23 = call ptr @_ZNKSt3setIN32pxrInternal_v0_24__pxrReserved__7SdfPathESt4lessIS1_ESaIS1_EE3endEv(ptr noundef nonnull align 8 dereferenceable(48) %22) #5
  %24 = getelementptr inbounds nuw %"struct.std::_Rb_tree_const_iterator", ptr %11, i32 0, i32 0
  store ptr %23, ptr %24, align 8
  br label %25

25:                                               ; preds = %30, %4
  %26 = call noundef zeroext i1 @_ZStneRKSt23_Rb_tree_const_iteratorIN32pxrInternal_v0_24__pxrReserved__7SdfPathEES4_(ptr noundef nonnull align 8 dereferenceable(8) %10, ptr noundef nonnull align 8 dereferenceable(8) %11) #5
  br i1 %26, label %27, label %32

27:                                               ; preds = %25
  %28 = call noundef nonnull align 4 dereferenceable(8) ptr @_ZNKSt23_Rb_tree_const_iteratorIN32pxrInternal_v0_24__pxrReserved__7SdfPathEEdeEv(ptr noundef nonnull align 8 dereferenceable(8) %10) #5
  store ptr %28, ptr %12, align 8
  %29 = load ptr, ptr %12, align 8
  call void @_ZN32pxrInternal_v0_24__pxrReserved__17UsdStageLoadRules6UnloadERKNS_7SdfPathE(ptr noundef nonnull align 8 dereferenceable(24) %17, ptr noundef nonnull align 4 dereferenceable(8) %29)
  br label %30

30:                                               ; preds = %27
  %31 = call noundef nonnull align 8 dereferenceable(8) ptr @_ZNSt23_Rb_tree_const_iteratorIN32pxrInternal_v0_24__pxrReserved__7SdfPathEEppEv(ptr noundef nonnull align 8 dereferenceable(8) %10) #5
  br label %25

32:                                               ; preds = %25
  %33 = load ptr, ptr %6, align 8
  store ptr %33, ptr %13, align 8
  %34 = load ptr, ptr %13, align 8
  %35 = call ptr @_ZNKSt3setIN32pxrInternal_v0_24__pxrReserved__7SdfPathESt4lessIS1_ESaIS1_EE5beginEv(ptr noundef nonnull align 8 dereferenceable(48) %34) #5
  %36 = getelementptr inbounds nuw %"struct.std::_Rb_tree_const_iterator", ptr %14, i32 0, i32 0
  store ptr %35, ptr %36, align 8
  %37 = load ptr, ptr %13, align 8
  %38 = call ptr @_ZNKSt3setIN32pxrInternal_v0_24__pxrReserved__7SdfPathESt4lessIS1_ESaIS1_EE3endEv(ptr noundef nonnull align 8 dereferenceable(48) %37) #5
  %39 = getelementptr inbounds nuw %"struct.std::_Rb_tree_const_iterator", ptr %15, i32 0, i32 0
  store ptr %38, ptr %39, align 8
  br label %40

40:                                               ; preds = %55, %32
  %41 = call noundef zeroext i1 @_ZStneRKSt23_Rb_tree_const_iteratorIN32pxrInternal_v0_24__pxrReserved__7SdfPathEES4_(ptr noundef nonnull align 8 dereferenceable(8) %14, ptr noundef nonnull align 8 dereferenceable(8) %15) #5
  br i1 %41, label %42, label %57

42:                                               ; preds = %40
  %43 = call noundef nonnull align 4 dereferenceable(8) ptr @_ZNKSt23_Rb_tree_const_iteratorIN32pxrInternal_v0_24__pxrReserved__7SdfPathEEdeEv(ptr noundef nonnull align 8 dereferenceable(8) %14) #5
  store ptr %43, ptr %16, align 8
  %44 = load i32, ptr %8, align 4
  %45 = icmp eq i32 %44, 0
  br i1 %45, label %46, label %48

46:                                               ; preds = %42
  %47 = load ptr, ptr %16, align 8
  call void @_ZN32pxrInternal_v0_24__pxrReserved__17UsdStageLoadRules19LoadWithDescendantsERKNS_7SdfPathE(ptr noundef nonnull align 8 dereferenceable(24) %17, ptr noundef nonnull align 4 dereferenceable(8) %47)
  br label %54

48:                                               ; preds = %42
  %49 = load i32, ptr %8, align 4
  %50 = icmp eq i32 %49, 1
  br i1 %50, label %51, label %53

51:                                               ; preds = %48
  %52 = load ptr, ptr %16, align 8
  call void @_ZN32pxrInternal_v0_24__pxrReserved__17UsdStageLoadRules22LoadWithoutDescendantsERKNS_7SdfPathE(ptr noundef nonnull align 8 dereferenceable(24) %17, ptr noundef nonnull align 4 dereferenceable(8) %52)
  br label %53

53:                                               ; preds = %51, %48
  br label %54

54:                                               ; preds = %53, %46
  br label %55

55:                                               ; preds = %54
  %56 = call noundef nonnull align 8 dereferenceable(8) ptr @_ZNSt23_Rb_tree_const_iteratorIN32pxrInternal_v0_24__pxrReserved__7SdfPathEEppEv(ptr noundef nonnull align 8 dereferenceable(8) %14) #5
  br label %40

57:                                               ; preds = %40
  ret void
}