; Function Attrs: mustprogress uwtable
define void @_ZN32pxrInternal_v0_24__pxrReserved__17UsdStageLoadRules13LoadAndUnloadERKSt3setINS_7SdfPathESt4lessIS2_ESaIS2_EES8_NS_13UsdLoadPolicyE(ptr noundef nonnull align 8 dereferenceable(24) %0, ptr noundef nonnull readonly align 8 dereferenceable(48) %1, ptr noundef nonnull readonly align 8 dereferenceable(48) %2, i32 noundef %3) local_unnamed_addr #0 align 2 personality ptr @__gxx_personality_v0 {
  %5 = getelementptr inbounds i8, ptr %2, i64 24
  %6 = load ptr, ptr %5, align 8
  %7 = getelementptr inbounds i8, ptr %2, i64 8
  %.not19 = icmp eq ptr %6, %7
  br i1 %.not19, label %._crit_edge, label %.lr.ph

.lr.ph:                                           ; preds = %4, %.lr.ph
  %.sroa.015.020 = phi ptr [ %9, %.lr.ph ], [ %6, %4 ]
  %8 = getelementptr inbounds nuw i8, ptr %.sroa.015.020, i64 32
  tail call void @_ZN32pxrInternal_v0_24__pxrReserved__17UsdStageLoadRules6UnloadERKNS_7SdfPathE(ptr noundef nonnull align 8 dereferenceable(24) %0, ptr noundef nonnull align 4 dereferenceable(8) %8)
  %9 = tail call noundef ptr @_ZSt18_Rb_tree_incrementPKSt18_Rb_tree_node_base(ptr noundef %.sroa.015.020) #21
  %.not = icmp eq ptr %9, %7
  br i1 %.not, label %._crit_edge, label %.lr.ph

._crit_edge:                                      ; preds = %.lr.ph, %4
  %10 = getelementptr inbounds i8, ptr %1, i64 24
  %11 = load ptr, ptr %10, align 8
  %12 = getelementptr inbounds i8, ptr %1, i64 8
  %.not1821 = icmp eq ptr %11, %12
  br i1 %.not1821, label %._crit_edge25, label %.lr.ph24

.lr.ph24:                                         ; preds = %._crit_edge
  switch i32 %3, label %._crit_edge25 [
    i32 0, label %.lr.ph24.split.us
    i32 1, label %.lr.ph24.split.us26
  ]

.lr.ph24.split.us:                                ; preds = %.lr.ph24, %.lr.ph24.split.us
  %.sroa.011.022.us = phi ptr [ %14, %.lr.ph24.split.us ], [ %11, %.lr.ph24 ]
  %13 = getelementptr inbounds nuw i8, ptr %.sroa.011.022.us, i64 32
  tail call void @_ZN32pxrInternal_v0_24__pxrReserved__17UsdStageLoadRules19LoadWithDescendantsERKNS_7SdfPathE(ptr noundef nonnull align 8 dereferenceable(24) %0, ptr noundef nonnull align 4 dereferenceable(8) %13)
  %14 = tail call noundef ptr @_ZSt18_Rb_tree_incrementPKSt18_Rb_tree_node_base(ptr noundef %.sroa.011.022.us) #21
  %.not18.us = icmp eq ptr %14, %12
  br i1 %.not18.us, label %._crit_edge25, label %.lr.ph24.split.us

.lr.ph24.split.us26:                              ; preds = %.lr.ph24, %.lr.ph24.split.us26
  %.sroa.011.022.us27 = phi ptr [ %16, %.lr.ph24.split.us26 ], [ %11, %.lr.ph24 ]
  %15 = getelementptr inbounds nuw i8, ptr %.sroa.011.022.us27, i64 32
  tail call void @_ZN32pxrInternal_v0_24__pxrReserved__17UsdStageLoadRules22LoadWithoutDescendantsERKNS_7SdfPathE(ptr noundef nonnull align 8 dereferenceable(24) %0, ptr noundef nonnull align 4 dereferenceable(8) %15)
  %16 = tail call noundef ptr @_ZSt18_Rb_tree_incrementPKSt18_Rb_tree_node_base(ptr noundef %.sroa.011.022.us27) #21
  %.not18.us28 = icmp eq ptr %16, %12
  br i1 %.not18.us28, label %._crit_edge25, label %.lr.ph24.split.us26

._crit_edge25:                                    ; preds = %.lr.ph24.split.us26, %.lr.ph24.split.us, %.lr.ph24, %._crit_edge
  ret void
}